target datalayout = "e-m:e-p270:32:32-p271:32:32-p272:64:64-i64:64-i128:128-f80:128-n8:16:32:64-S128"
target triple = "x86_64-pc-linux-gnu"

%struct.DdNode = type { i32, i32, ptr, %union.anon, i64 }
%union.anon = type { %struct.DdChildren }
%struct.DdChildren = type { ptr, ptr }
%struct.DdManager = type { %struct.DdNode, ptr, ptr, ptr, ptr, ptr, ptr, ptr, i32, i32, double, double, double, i32, i32, i32, i32, i32, i32, ptr, ptr, %struct.DdSubtable, i32, i32, i32, i32, i32, i32, i32, double, i32, i32, i32, ptr, i64, double, i32, ptr, ptr, ptr, ptr, ptr, ptr, ptr, i32, ptr, ptr, ptr, ptr, ptr, ptr, i32, i32, i32, double, i32, i32, i32, i32, double, double, i32, i32, i32, i32, i32, i32, i32, i32, i32, ptr, ptr, i32, i32, i32, i32, i32, i32, ptr, ptr, ptr, ptr, ptr, ptr, ptr, ptr, i32, i64, i64, i64, i32, i64, i64, double, double, double, double, double, double, i32, ptr, ptr, i64 }
%struct.DdSubtable = type { ptr, i32, i32, i32, i32, i32, i32, i32, i32, i32, i32, i32 }

; Function Attrs: nounwind uwtable
define i32 @Cudd_bddVarConjDecomp(ptr noundef %0, ptr noundef %1, ptr noundef %2) #0 {
  %4 = alloca i32, align 4
  %5 = alloca ptr, align 8
  %6 = alloca ptr, align 8
  %7 = alloca ptr, align 8
  %8 = alloca i32, align 4
  %9 = alloca i32, align 4
  %10 = alloca ptr, align 8
  %11 = alloca ptr, align 8
  %12 = alloca ptr, align 8
  %13 = alloca ptr, align 8
  %14 = alloca ptr, align 8
  %15 = alloca i32, align 4
  %16 = alloca i32, align 4
  %17 = alloca i32, align 4
  %18 = alloca i32, align 4
  %19 = alloca i32, align 4
  store ptr %0, ptr %5, align 8, !tbaa !3
  store ptr %1, ptr %6, align 8, !tbaa !8
  store ptr %2, ptr %7, align 8, !tbaa !10
  call void @llvm.lifetime.start.p0(i64 4, ptr %8) #5
  call void @llvm.lifetime.start.p0(i64 4, ptr %9) #5
  call void @llvm.lifetime.start.p0(i64 8, ptr %10) #5
  call void @llvm.lifetime.start.p0(i64 8, ptr %11) #5
  call void @llvm.lifetime.start.p0(i64 8, ptr %12) #5
  call void @llvm.lifetime.start.p0(i64 8, ptr %13) #5
  call void @llvm.lifetime.start.p0(i64 8, ptr %14) #5
  %20 = load ptr, ptr %5, align 8, !tbaa !3
  %21 = load ptr, ptr %6, align 8, !tbaa !8
  %22 = call ptr @Cudd_Support(ptr noundef %20, ptr noundef %21)
  store ptr %22, ptr %10, align 8, !tbaa !8
  %23 = load ptr, ptr %10, align 8, !tbaa !8
  %24 = icmp eq ptr %23, null
  br i1 %24, label %25, label %26

25:                                               ; preds = %3
  store i32 0, ptr %4, align 4
  store i32 1, ptr %15, align 4
  br label %218

26:                                               ; preds = %3
  %27 = load ptr, ptr %10, align 8, !tbaa !8
  %28 = ptrtoint ptr %27 to i64
  %29 = and i64 %28, -2
  %30 = inttoptr i64 %29 to ptr
  %31 = getelementptr inbounds nuw %struct.DdNode, ptr %30, i32 0, i32 0
  %32 = load i32, ptr %31, align 8, !tbaa !65
  %33 = icmp eq i32 %32, 2147483647
  br i1 %33, label %34, label %58

34:                                               ; preds = %26
  %35 = call noalias ptr @malloc(i64 noundef 8) #6
  %36 = load ptr, ptr %7, align 8, !tbaa !10
  store ptr %35, ptr %36, align 8, !tbaa !31
  %37 = load ptr, ptr %7, align 8, !tbaa !10
  %38 = load ptr, ptr %37, align 8, !tbaa !31
  %39 = icmp eq ptr %38, null
  br i1 %39, label %40, label %43

40:                                               ; preds = %34
  %41 = load ptr, ptr %5, align 8, !tbaa !3
  %42 = getelementptr inbounds nuw %struct.DdManager, ptr %41, i32 0, i32 86
  store i32 1, ptr %42, align 8, !tbaa !32
  store i32 0, ptr %4, align 4
  store i32 1, ptr %15, align 4
  br label %218

43:                                               ; preds = %34
  %44 = load ptr, ptr %6, align 8, !tbaa !8
  %45 = load ptr, ptr %7, align 8, !tbaa !10
  %46 = load ptr, ptr %45, align 8, !tbaa !31
  %47 = getelementptr inbounds ptr, ptr %46, i64 0
  store ptr %44, ptr %47, align 8, !tbaa !8
  %48 = load ptr, ptr %7, align 8, !tbaa !10
  %49 = load ptr, ptr %48, align 8, !tbaa !31
  %50 = getelementptr inbounds ptr, ptr %49, i64 0
  %51 = load ptr, ptr %50, align 8, !tbaa !8
  %52 = ptrtoint ptr %51 to i64
  %53 = and i64 %52, -2
  %54 = inttoptr i64 %53 to ptr
  %55 = getelementptr inbounds nuw %struct.DdNode, ptr %54, i32 0, i32 1
  %56 = load i32, ptr %55, align 4, !tbaa !14
  %57 = add i32 %56, 1
  store i32 %57, ptr %55, align 4, !tbaa !14
  store i32 1, ptr %4, align 4
  store i32 1, ptr %15, align 4
  br label %218

58:                                               ; preds = %26
  %59 = load ptr, ptr %10, align 8, !tbaa !8
  %60 = ptrtoint ptr %59 to i64
  %61 = and i64 %60, -2
  %62 = inttoptr i64 %61 to ptr
  %63 = getelementptr inbounds nuw %struct.DdNode, ptr %62, i32 0, i32 1
  %64 = load i32, ptr %63, align 4, !tbaa !14
  %65 = add i32 %64, 1
  store i32 %65, ptr %63, align 4, !tbaa !14
  store i32 1000000000, ptr %9, align 4, !tbaa !12
  store i32 -1, ptr %8, align 4, !tbaa !12
  %66 = load ptr, ptr %10, align 8, !tbaa !8
  store ptr %66, ptr %11, align 8, !tbaa !8
  br label %67

67:                                               ; preds = %103, %58
  %68 = load ptr, ptr %11, align 8, !tbaa !8
  %69 = ptrtoint ptr %68 to i64
  %70 = and i64 %69, -2
  %71 = inttoptr i64 %70 to ptr
  %72 = getelementptr inbounds nuw %struct.DdNode, ptr %71, i32 0, i32 0
  %73 = load i32, ptr %72, align 8, !tbaa !65
  %74 = icmp eq i32 %73, 2147483647
  %75 = xor i1 %74, true
  br i1 %75, label %76, label %108

76:                                               ; preds = %67
  call void @llvm.lifetime.start.p0(i64 4, ptr %16) #5
  %77 = load ptr, ptr %11, align 8, !tbaa !8
  %78 = getelementptr inbounds nuw %struct.DdNode, ptr %77, i32 0, i32 0
  %79 = load i32, ptr %78, align 8, !tbaa !65
  store i32 %79, ptr %16, align 4, !tbaa !12
  call void @llvm.lifetime.start.p0(i64 4, ptr %17) #5
  %80 = load ptr, ptr %5, align 8, !tbaa !3
  %81 = load ptr, ptr %6, align 8, !tbaa !8
  %82 = load i32, ptr %16, align 4, !tbaa !12
  %83 = call i32 @Cudd_EstimateCofactor(ptr noundef %80, ptr noundef %81, i32 noundef %82, i32 noundef 1)
  store i32 %83, ptr %17, align 4, !tbaa !12
  call void @llvm.lifetime.start.p0(i64 4, ptr %18) #5
  %84 = load ptr, ptr %5, align 8, !tbaa !3
  %85 = load ptr, ptr %6, align 8, !tbaa !8
  %86 = load i32, ptr %16, align 4, !tbaa !12
  %87 = call i32 @Cudd_EstimateCofactor(ptr noundef %84, ptr noundef %85, i32 noundef %86, i32 noundef 0)
  store i32 %87, ptr %18, align 4, !tbaa !12
  call void @llvm.lifetime.start.p0(i64 4, ptr %19) #5
  %88 = load i32, ptr %17, align 4, !tbaa !12
  %89 = load i32, ptr %18, align 4, !tbaa !12
  %90 = icmp sgt i32 %88, %89
  br i1 %90, label %91, label %93

91:                                               ; preds = %76
  %92 = load i32, ptr %17, align 4, !tbaa !12
  br label %95

93:                                               ; preds = %76
  %94 = load i32, ptr %18, align 4, !tbaa !12
  br label %95

95:                                               ; preds = %93, %91
  %96 = phi i32 [ %92, %91 ], [ %94, %93 ]
  store i32 %96, ptr %19, align 4, !tbaa !12
  %97 = load i32, ptr %19, align 4, !tbaa !12
  %98 = load i32, ptr %9, align 4, !tbaa !12
  %99 = icmp slt i32 %97, %98
  br i1 %99, label %100, label %103

100:                                              ; preds = %95
  %101 = load i32, ptr %19, align 4, !tbaa !12
  store i32 %101, ptr %9, align 4, !tbaa !12
  %102 = load i32, ptr %16, align 4, !tbaa !12
  store i32 %102, ptr %8, align 4, !tbaa !12
  br label %103

103:                                              ; preds = %100, %95
  %104 = load ptr, ptr %11, align 8, !tbaa !8
  %105 = getelementptr inbounds nuw %struct.DdNode, ptr %104, i32 0, i32 3
  %106 = getelementptr inbounds nuw %struct.DdChildren, ptr %105, i32 0, i32 0
  %107 = load ptr, ptr %106, align 8, !tbaa !66
  store ptr %107, ptr %11, align 8, !tbaa !8
  call void @llvm.lifetime.end.p0(i64 4, ptr %19) #5
  call void @llvm.lifetime.end.p0(i64 4, ptr %18) #5
  call void @llvm.lifetime.end.p0(i64 4, ptr %17) #5
  call void @llvm.lifetime.end.p0(i64 4, ptr %16) #5
  br label %67, !llvm.loop !67

108:                                              ; preds = %67
  %109 = load ptr, ptr %5, align 8, !tbaa !3
  %110 = load ptr, ptr %10, align 8, !tbaa !8
  call void @Cudd_RecursiveDeref(ptr noundef %109, ptr noundef %110)
  %111 = load ptr, ptr %5, align 8, !tbaa !3
  %112 = load i32, ptr %8, align 4, !tbaa !12
  %113 = call ptr @Cudd_bddIthVar(ptr noundef %111, i32 noundef %112)
  store ptr %113, ptr %12, align 8, !tbaa !8
  %114 = load ptr, ptr %5, align 8, !tbaa !3
  %115 = load ptr, ptr %6, align 8, !tbaa !8
  %116 = load ptr, ptr %12, align 8, !tbaa !8
  %117 = call ptr @Cudd_bddOr(ptr noundef %114, ptr noundef %115, ptr noundef %116)
  store ptr %117, ptr %13, align 8, !tbaa !8
  %118 = load ptr, ptr %13, align 8, !tbaa !8
  %119 = icmp eq ptr %118, null
  br i1 %119, label %120, label %121

120:                                              ; preds = %108
  store i32 0, ptr %4, align 4
  store i32 1, ptr %15, align 4
  br label %218

121:                                              ; preds = %108
  %122 = load ptr, ptr %13, align 8, !tbaa !8
  %123 = ptrtoint ptr %122 to i64
  %124 = and i64 %123, -2
  %125 = inttoptr i64 %124 to ptr
  %126 = getelementptr inbounds nuw %struct.DdNode, ptr %125, i32 0, i32 1
  %127 = load i32, ptr %126, align 4, !tbaa !14
  %128 = add i32 %127, 1
  store i32 %128, ptr %126, align 4, !tbaa !14
  %129 = load ptr, ptr %5, align 8, !tbaa !3
  %130 = load ptr, ptr %6, align 8, !tbaa !8
  %131 = load ptr, ptr %12, align 8, !tbaa !8
  %132 = ptrtoint ptr %131 to i64
  %133 = xor i64 %132, 1
  %134 = inttoptr i64 %133 to ptr
  %135 = call ptr @Cudd_bddOr(ptr noundef %129, ptr noundef %130, ptr noundef %134)
  store ptr %135, ptr %14, align 8, !tbaa !8
  %136 = load ptr, ptr %14, align 8, !tbaa !8
  %137 = icmp eq ptr %136, null
  br i1 %137, label %138, label %141

138:                                              ; preds = %121
  %139 = load ptr, ptr %5, align 8, !tbaa !3
  %140 = load ptr, ptr %13, align 8, !tbaa !8
  call void @Cudd_RecursiveDeref(ptr noundef %139, ptr noundef %140)
  store i32 0, ptr %4, align 4
  store i32 1, ptr %15, align 4
  br label %218

141:                                              ; preds = %121
  %142 = load ptr, ptr %14, align 8, !tbaa !8
  %143 = ptrtoint ptr %142 to i64
  %144 = and i64 %143, -2
  %145 = inttoptr i64 %144 to ptr
  %146 = getelementptr inbounds nuw %struct.DdNode, ptr %145, i32 0, i32 1
  %147 = load i32, ptr %146, align 4, !tbaa !14
  %148 = add i32 %147, 1
  store i32 %148, ptr %146, align 4, !tbaa !14
  %149 = load ptr, ptr %13, align 8, !tbaa !8
  %150 = load ptr, ptr %5, align 8, !tbaa !3
  %151 = getelementptr inbounds nuw %struct.DdManager, ptr %150, i32 0, i32 1
  %152 = load ptr, ptr %151, align 8, !tbaa !17
  %153 = icmp ne ptr %149, %152
  br i1 %153, label %154, label %200

154:                                              ; preds = %141
  %155 = load ptr, ptr %14, align 8, !tbaa !8
  %156 = load ptr, ptr %5, align 8, !tbaa !3
  %157 = getelementptr inbounds nuw %struct.DdManager, ptr %156, i32 0, i32 1
  %158 = load ptr, ptr %157, align 8, !tbaa !17
  %159 = icmp ne ptr %155, %158
  br i1 %159, label %160, label %182

160:                                              ; preds = %154
  %161 = call noalias ptr @malloc(i64 noundef 16) #6
  %162 = load ptr, ptr %7, align 8, !tbaa !10
  store ptr %161, ptr %162, align 8, !tbaa !31
  %163 = load ptr, ptr %7, align 8, !tbaa !10
  %164 = load ptr, ptr %163, align 8, !tbaa !31
  %165 = icmp eq ptr %164, null
  br i1 %165, label %166, label %173

166:                                              ; preds = %160
  %167 = load ptr, ptr %5, align 8, !tbaa !3
  %168 = load ptr, ptr %13, align 8, !tbaa !8
  call void @Cudd_RecursiveDeref(ptr noundef %167, ptr noundef %168)
  %169 = load ptr, ptr %5, align 8, !tbaa !3
  %170 = load ptr, ptr %14, align 8, !tbaa !8
  call void @Cudd_RecursiveDeref(ptr noundef %169, ptr noundef %170)
  %171 = load ptr, ptr %5, align 8, !tbaa !3
  %172 = getelementptr inbounds nuw %struct.DdManager, ptr %171, i32 0, i32 86
  store i32 1, ptr %172, align 8, !tbaa !32
  store i32 0, ptr %4, align 4
  store i32 1, ptr %15, align 4
  br label %218

173:                                              ; preds = %160
  %174 = load ptr, ptr %13, align 8, !tbaa !8
  %175 = load ptr, ptr %7, align 8, !tbaa !10
  %176 = load ptr, ptr %175, align 8, !tbaa !31
  %177 = getelementptr inbounds ptr, ptr %176, i64 0
  store ptr %174, ptr %177, align 8, !tbaa !8
  %178 = load ptr, ptr %14, align 8, !tbaa !8
  %179 = load ptr, ptr %7, align 8, !tbaa !10
  %180 = load ptr, ptr %179, align 8, !tbaa !31
  %181 = getelementptr inbounds ptr, ptr %180, i64 1
  store ptr %178, ptr %181, align 8, !tbaa !8
  store i32 2, ptr %4, align 4
  store i32 1, ptr %15, align 4
  br label %218

182:                                              ; preds = %154
  %183 = load ptr, ptr %5, align 8, !tbaa !3
  %184 = load ptr, ptr %14, align 8, !tbaa !8
  call void @Cudd_RecursiveDeref(ptr noundef %183, ptr noundef %184)
  %185 = call noalias ptr @malloc(i64 noundef 8) #6
  %186 = load ptr, ptr %7, align 8, !tbaa !10
  store ptr %185, ptr %186, align 8, !tbaa !31
  %187 = load ptr, ptr %7, align 8, !tbaa !10
  %188 = load ptr, ptr %187, align 8, !tbaa !31
  %189 = icmp eq ptr %188, null
  br i1 %189, label %190, label %195

190:                                              ; preds = %182
  %191 = load ptr, ptr %5, align 8, !tbaa !3
  %192 = load ptr, ptr %13, align 8, !tbaa !8
  call void @Cudd_RecursiveDeref(ptr noundef %191, ptr noundef %192)
  %193 = load ptr, ptr %5, align 8, !tbaa !3
  %194 = getelementptr inbounds nuw %struct.DdManager, ptr %193, i32 0, i32 86
  store i32 1, ptr %194, align 8, !tbaa !32
  store i32 0, ptr %4, align 4
  store i32 1, ptr %15, align 4
  br label %218

195:                                              ; preds = %182
  %196 = load ptr, ptr %13, align 8, !tbaa !8
  %197 = load ptr, ptr %7, align 8, !tbaa !10
  %198 = load ptr, ptr %197, align 8, !tbaa !31
  %199 = getelementptr inbounds ptr, ptr %198, i64 0
  store ptr %196, ptr %199, align 8, !tbaa !8
  store i32 1, ptr %4, align 4
  store i32 1, ptr %15, align 4
  br label %218

200:                                              ; preds = %141
  %201 = load ptr, ptr %5, align 8, !tbaa !3
  %202 = load ptr, ptr %13, align 8, !tbaa !8
  call void @Cudd_RecursiveDeref(ptr noundef %201, ptr noundef %202)
  %203 = call noalias ptr @malloc(i64 noundef 8) #6
  %204 = load ptr, ptr %7, align 8, !tbaa !10
  store ptr %203, ptr %204, align 8, !tbaa !31
  %205 = load ptr, ptr %7, align 8, !tbaa !10
  %206 = load ptr, ptr %205, align 8, !tbaa !31
  %207 = icmp eq ptr %206, null
  br i1 %207, label %208, label %213

208:                                              ; preds = %200
  %209 = load ptr, ptr %5, align 8, !tbaa !3
  %210 = load ptr, ptr %14, align 8, !tbaa !8
  call void @Cudd_RecursiveDeref(ptr noundef %209, ptr noundef %210)
  %211 = load ptr, ptr %5, align 8, !tbaa !3
  %212 = getelementptr inbounds nuw %struct.DdManager, ptr %211, i32 0, i32 86
  store i32 1, ptr %212, align 8, !tbaa !32
  store i32 0, ptr %4, align 4
  store i32 1, ptr %15, align 4
  br label %218

213:                                              ; preds = %200
  %214 = load ptr, ptr %14, align 8, !tbaa !8
  %215 = load ptr, ptr %7, align 8, !tbaa !10
  %216 = load ptr, ptr %215, align 8, !tbaa !31
  %217 = getelementptr inbounds ptr, ptr %216, i64 0
  store ptr %214, ptr %217, align 8, !tbaa !8
  store i32 1, ptr %4, align 4
  store i32 1, ptr %15, align 4
  br label %218

218:                                              ; preds = %213, %208, %195, %190, %173, %166, %138, %120, %43, %40, %25
  call void @llvm.lifetime.end.p0(i64 8, ptr %14) #5
  call void @llvm.lifetime.end.p0(i64 8, ptr %13) #5
  call void @llvm.lifetime.end.p0(i64 8, ptr %12) #5
  call void @llvm.lifetime.end.p0(i64 8, ptr %11) #5
  call void @llvm.lifetime.end.p0(i64 8, ptr %10) #5
  call void @llvm.lifetime.end.p0(i64 4, ptr %9) #5
  call void @llvm.lifetime.end.p0(i64 4, ptr %8) #5
  %219 = load i32, ptr %4, align 4
  ret i32 %219
}