; Function Attrs: nounwind uwtable
define range(i32 0, 3) i32 @Cudd_bddVarConjDecomp(ptr noundef %0, ptr noundef %1, ptr noundef writeonly captures(none) %2) local_unnamed_addr #0 {
  %4 = tail call ptr @Cudd_Support(ptr noundef %0, ptr noundef %1) #8
  %5 = icmp eq ptr %4, null
  br i1 %5, label %83, label %6

6:                                                ; preds = %3
  %7 = ptrtoint ptr %4 to i64
  %8 = and i64 %7, -2
  %9 = inttoptr i64 %8 to ptr
  %10 = load i32, ptr %9, align 8, !tbaa !51
  %11 = icmp eq i32 %10, 2147483647
  br i1 %11, label %12, label %.lr.ph.preheader

12:                                               ; preds = %6
  %13 = tail call noalias dereferenceable_or_null(8) ptr @malloc(i64 noundef 8) #9
  store ptr %13, ptr %2, align 8, !tbaa !25
  %14 = icmp eq ptr %13, null
  br i1 %14, label %15, label %17

15:                                               ; preds = %12
  %16 = getelementptr inbounds nuw i8, ptr %0, i64 624
  store i32 1, ptr %16, align 8, !tbaa !26
  br label %83

17:                                               ; preds = %12
  store ptr %1, ptr %13, align 8, !tbaa !27
  %18 = ptrtoint ptr %1 to i64
  %19 = and i64 %18, -2
  %20 = inttoptr i64 %19 to ptr
  %21 = getelementptr inbounds nuw i8, ptr %20, i64 4
  %22 = load i32, ptr %21, align 4, !tbaa !3
  %23 = add i32 %22, 1
  store i32 %23, ptr %21, align 4, !tbaa !3
  br label %83

.lr.ph.preheader:                                 ; preds = %6
  %24 = getelementptr inbounds nuw i8, ptr %9, i64 4
  %25 = load i32, ptr %24, align 4, !tbaa !3
  %26 = add i32 %25, 1
  store i32 %26, ptr %24, align 4, !tbaa !3
  br label %.lr.ph

.lr.ph:                                           ; preds = %.lr.ph.preheader, %.lr.ph
  %.07897 = phi i32 [ %spec.select93, %.lr.ph ], [ -1, %.lr.ph.preheader ]
  %.07996 = phi i32 [ %spec.select, %.lr.ph ], [ 1000000000, %.lr.ph.preheader ]
  %.08195 = phi ptr [ %33, %.lr.ph ], [ %4, %.lr.ph.preheader ]
  %27 = load i32, ptr %.08195, align 8, !tbaa !51
  %28 = tail call i32 @Cudd_EstimateCofactor(ptr noundef %0, ptr noundef %1, i32 noundef %27, i32 noundef 1) #8
  %29 = tail call i32 @Cudd_EstimateCofactor(ptr noundef %0, ptr noundef %1, i32 noundef %27, i32 noundef 0) #8
  %30 = tail call i32 @llvm.smax.i32(i32 %28, i32 %29)
  %31 = icmp slt i32 %30, %.07996
  %spec.select = tail call i32 @llvm.smin.i32(i32 %30, i32 %.07996)
  %spec.select93 = select i1 %31, i32 %27, i32 %.07897
  %32 = getelementptr inbounds nuw i8, ptr %.08195, i64 16
  %33 = load ptr, ptr %32, align 8, !tbaa !52
  %34 = ptrtoint ptr %33 to i64
  %35 = and i64 %34, -2
  %36 = inttoptr i64 %35 to ptr
  %37 = load i32, ptr %36, align 8, !tbaa !51
  %.not = icmp eq i32 %37, 2147483647
  br i1 %.not, label %._crit_edge, label %.lr.ph, !llvm.loop !53

._crit_edge:                                      ; preds = %.lr.ph
  tail call void @Cudd_RecursiveDeref(ptr noundef %0, ptr noundef nonnull %4) #8
  %38 = tail call ptr @Cudd_bddIthVar(ptr noundef %0, i32 noundef %spec.select93) #8
  %39 = tail call ptr @Cudd_bddOr(ptr noundef %0, ptr noundef %1, ptr noundef %38) #8
  %40 = icmp eq ptr %39, null
  br i1 %40, label %83, label %41

41:                                               ; preds = %._crit_edge
  %42 = ptrtoint ptr %39 to i64
  %43 = and i64 %42, -2
  %44 = inttoptr i64 %43 to ptr
  %45 = getelementptr inbounds nuw i8, ptr %44, i64 4
  %46 = load i32, ptr %45, align 4, !tbaa !3
  %47 = add i32 %46, 1
  store i32 %47, ptr %45, align 4, !tbaa !3
  %48 = ptrtoint ptr %38 to i64
  %49 = xor i64 %48, 1
  %50 = inttoptr i64 %49 to ptr
  %51 = tail call ptr @Cudd_bddOr(ptr noundef %0, ptr noundef %1, ptr noundef %50) #8
  %52 = icmp eq ptr %51, null
  br i1 %52, label %53, label %54

53:                                               ; preds = %41
  tail call void @Cudd_RecursiveDeref(ptr noundef %0, ptr noundef nonnull %39) #8
  br label %83

54:                                               ; preds = %41
  %55 = ptrtoint ptr %51 to i64
  %56 = and i64 %55, -2
  %57 = inttoptr i64 %56 to ptr
  %58 = getelementptr inbounds nuw i8, ptr %57, i64 4
  %59 = load i32, ptr %58, align 4, !tbaa !3
  %60 = add i32 %59, 1
  store i32 %60, ptr %58, align 4, !tbaa !3
  %61 = getelementptr inbounds nuw i8, ptr %0, i64 40
  %62 = load ptr, ptr %61, align 8, !tbaa !11
  %.not91 = icmp eq ptr %39, %62
  br i1 %.not91, label %77, label %63

63:                                               ; preds = %54
  %.not92 = icmp eq ptr %51, %62
  br i1 %.not92, label %71, label %64

64:                                               ; preds = %63
  %65 = tail call noalias dereferenceable_or_null(16) ptr @malloc(i64 noundef 16) #9
  store ptr %65, ptr %2, align 8, !tbaa !25
  %66 = icmp eq ptr %65, null
  br i1 %66, label %67, label %69

67:                                               ; preds = %64
  tail call void @Cudd_RecursiveDeref(ptr noundef nonnull %0, ptr noundef nonnull %39) #8
  tail call void @Cudd_RecursiveDeref(ptr noundef nonnull %0, ptr noundef nonnull %51) #8
  %68 = getelementptr inbounds nuw i8, ptr %0, i64 624
  store i32 1, ptr %68, align 8, !tbaa !26
  br label %83

69:                                               ; preds = %64
  store ptr %39, ptr %65, align 8, !tbaa !27
  %70 = getelementptr inbounds nuw i8, ptr %65, i64 8
  store ptr %51, ptr %70, align 8, !tbaa !27
  br label %83

71:                                               ; preds = %63
  tail call void @Cudd_RecursiveDeref(ptr noundef nonnull %0, ptr noundef nonnull %51) #8
  %72 = tail call noalias dereferenceable_or_null(8) ptr @malloc(i64 noundef 8) #9
  store ptr %72, ptr %2, align 8, !tbaa !25
  %73 = icmp eq ptr %72, null
  br i1 %73, label %74, label %76

74:                                               ; preds = %71
  tail call void @Cudd_RecursiveDeref(ptr noundef nonnull %0, ptr noundef nonnull %39) #8
  %75 = getelementptr inbounds nuw i8, ptr %0, i64 624
  store i32 1, ptr %75, align 8, !tbaa !26
  br label %83

76:                                               ; preds = %71
  store ptr %39, ptr %72, align 8, !tbaa !27
  br label %83

77:                                               ; preds = %54
  tail call void @Cudd_RecursiveDeref(ptr noundef nonnull %0, ptr noundef nonnull %39) #8
  %78 = tail call noalias dereferenceable_or_null(8) ptr @malloc(i64 noundef 8) #9
  store ptr %78, ptr %2, align 8, !tbaa !25
  %79 = icmp eq ptr %78, null
  br i1 %79, label %80, label %82

80:                                               ; preds = %77
  tail call void @Cudd_RecursiveDeref(ptr noundef nonnull %0, ptr noundef nonnull %51) #8
  %81 = getelementptr inbounds nuw i8, ptr %0, i64 624
  store i32 1, ptr %81, align 8, !tbaa !26
  br label %83

82:                                               ; preds = %77
  store ptr %51, ptr %78, align 8, !tbaa !27
  br label %83

83:                                               ; preds = %._crit_edge, %3, %82, %80, %76, %74, %69, %67, %53, %17, %15
  %.0 = phi i32 [ 0, %15 ], [ 1, %17 ], [ 0, %53 ], [ 0, %67 ], [ 2, %69 ], [ 0, %74 ], [ 1, %76 ], [ 0, %80 ], [ 1, %82 ], [ 0, %3 ], [ 0, %._crit_edge ]
  ret i32 %.0
}